target datalayout = "e-m:e-p270:32:32-p271:32:32-p272:64:64-i64:64-i128:128-f80:128-n8:16:32:64-S128"
target triple = "x86_64-pc-linux-gnu"

%struct.PJconsts = type { ptr, ptr, ptr, ptr, ptr, ptr, ptr, ptr, ptr, ptr, ptr, ptr, i32, ptr, ptr, ptr, ptr, ptr, ptr, ptr, ptr, double, double, double, double, double, double, double, double, double, double, double, double, double, double, double, double, double, double, double, double, double, double, i32, i32, i32, i32, i32, i32, i32, i32, i32, i32, i32, ptr, ptr, ptr, ptr, ptr, ptr, double, double, double, double, double, double, double, double, double, double, double, i32, [7 x double], i32, ptr, ptr, double, double, i32, [4 x i8], %"class.std::shared_ptr", i8, double, i8, %"class.std::__cxx11::basic_string", %"class.std::__cxx11::basic_string", %"class.std::__cxx11::basic_string", i8, %"class.std::vector", i32, %"class.std::vector.3", i32, i8, i8, i8, ptr }
%"class.std::shared_ptr" = type { %"class.std::__shared_ptr" }
%"class.std::__shared_ptr" = type { ptr, %"class.std::__shared_count" }
%"class.std::__shared_count" = type { ptr }
%"class.std::__cxx11::basic_string" = type { %"struct.std::__cxx11::basic_string<char>::_Alloc_hider", i64, %union.anon }
%"struct.std::__cxx11::basic_string<char>::_Alloc_hider" = type { ptr }
%union.anon = type { i64, [8 x i8] }
%"class.std::vector" = type { %"struct.std::_Vector_base" }
%"struct.std::_Vector_base" = type { %"struct.std::_Vector_base<osgeo::proj::operation::GridDescription, std::allocator<osgeo::proj::operation::GridDescription>>::_Vector_impl" }
%"struct.std::_Vector_base<osgeo::proj::operation::GridDescription, std::allocator<osgeo::proj::operation::GridDescription>>::_Vector_impl" = type { %"struct.std::_Vector_base<osgeo::proj::operation::GridDescription, std::allocator<osgeo::proj::operation::GridDescription>>::_Vector_impl_data" }
%"struct.std::_Vector_base<osgeo::proj::operation::GridDescription, std::allocator<osgeo::proj::operation::GridDescription>>::_Vector_impl_data" = type { ptr, ptr, ptr }
%"class.std::vector.3" = type { %"struct.std::_Vector_base.4" }
%"struct.std::_Vector_base.4" = type { %"struct.std::_Vector_base<PJCoordOperation, std::allocator<PJCoordOperation>>::_Vector_impl" }
%"struct.std::_Vector_base<PJCoordOperation, std::allocator<PJCoordOperation>>::_Vector_impl" = type { %"struct.std::_Vector_base<PJCoordOperation, std::allocator<PJCoordOperation>>::_Vector_impl_data" }
%"struct.std::_Vector_base<PJCoordOperation, std::allocator<PJCoordOperation>>::_Vector_impl_data" = type { ptr, ptr, ptr }
%"struct.(anonymous namespace)::pj_sts" = type { double, double, double, i32 }
%struct.PJ_LP = type { double, double }
%struct.PJ_XY = type { double, double }

; Function Attrs: mustprogress uwtable
define internal { double, double } @_ZL13sts_s_inverse5PJ_XYP8PJconsts(double %0, double %1, ptr noundef %2) #0 {
  %4 = alloca %struct.PJ_LP, align 8
  %5 = alloca %struct.PJ_XY, align 8
  %6 = alloca ptr, align 8
  %7 = alloca ptr, align 8
  %8 = alloca double, align 8
  %9 = getelementptr inbounds nuw { double, double }, ptr %5, i32 0, i32 0
  store double %0, ptr %9, align 8
  %10 = getelementptr inbounds nuw { double, double }, ptr %5, i32 0, i32 1
  store double %1, ptr %10, align 8
  store ptr %2, ptr %6, align 8, !tbaa !3
  call void @llvm.memset.p0.i64(ptr align 8 %4, i8 0, i64 16, i1 false)
  call void @llvm.lifetime.start.p0(i64 8, ptr %7) #7
  %11 = load ptr, ptr %6, align 8, !tbaa !3
  %12 = getelementptr inbounds nuw %struct.PJconsts, ptr %11, i32 0, i32 11
  %13 = load ptr, ptr %12, align 8, !tbaa !43
  store ptr %13, ptr %7, align 8, !tbaa !41
  %14 = load ptr, ptr %7, align 8, !tbaa !41
  %15 = getelementptr inbounds nuw %"struct.(anonymous namespace)::pj_sts", ptr %14, i32 0, i32 1
  %16 = load double, ptr %15, align 8, !tbaa !51
  %17 = getelementptr inbounds nuw %struct.PJ_XY, ptr %5, i32 0, i32 1
  %18 = load double, ptr %17, align 8, !tbaa !54
  %19 = fdiv double %18, %16
  store double %19, ptr %17, align 8, !tbaa !54
  %20 = load ptr, ptr %7, align 8, !tbaa !41
  %21 = getelementptr inbounds nuw %"struct.(anonymous namespace)::pj_sts", ptr %20, i32 0, i32 3
  %22 = load i32, ptr %21, align 8, !tbaa !53
  %23 = icmp ne i32 %22, 0
  br i1 %23, label %24, label %28

24:                                               ; preds = %3
  %25 = getelementptr inbounds nuw %struct.PJ_XY, ptr %5, i32 0, i32 1
  %26 = load double, ptr %25, align 8, !tbaa !54
  %27 = call double @atan(double noundef %26) #7, !tbaa !45
  br label %35

28:                                               ; preds = %3
  %29 = load ptr, ptr %6, align 8, !tbaa !3
  %30 = getelementptr inbounds nuw %struct.PJconsts, ptr %29, i32 0, i32 0
  %31 = load ptr, ptr %30, align 8, !tbaa !56
  %32 = getelementptr inbounds nuw %struct.PJ_XY, ptr %5, i32 0, i32 1
  %33 = load double, ptr %32, align 8, !tbaa !54
  %34 = call noundef double @_Z5aasinP6pj_ctxd(ptr noundef %31, double noundef %33)
  br label %35

35:                                               ; preds = %28, %24
  %36 = phi double [ %27, %24 ], [ %34, %28 ]
  %37 = getelementptr inbounds nuw %struct.PJ_LP, ptr %4, i32 0, i32 1
  store double %36, ptr %37, align 8, !tbaa !57
  call void @llvm.lifetime.start.p0(i64 8, ptr %8) #7
  %38 = getelementptr inbounds nuw %struct.PJ_LP, ptr %4, i32 0, i32 1
  %39 = load double, ptr %38, align 8, !tbaa !57
  %40 = call double @cos(double noundef %39) #7, !tbaa !45
  store double %40, ptr %8, align 8, !tbaa !44
  %41 = load ptr, ptr %7, align 8, !tbaa !41
  %42 = getelementptr inbounds nuw %"struct.(anonymous namespace)::pj_sts", ptr %41, i32 0, i32 2
  %43 = load double, ptr %42, align 8, !tbaa !52
  %44 = getelementptr inbounds nuw %struct.PJ_LP, ptr %4, i32 0, i32 1
  %45 = load double, ptr %44, align 8, !tbaa !57
  %46 = fdiv double %45, %43
  store double %46, ptr %44, align 8, !tbaa !57
  %47 = getelementptr inbounds nuw %struct.PJ_XY, ptr %5, i32 0, i32 0
  %48 = load double, ptr %47, align 8, !tbaa !59
  %49 = load ptr, ptr %7, align 8, !tbaa !41
  %50 = getelementptr inbounds nuw %"struct.(anonymous namespace)::pj_sts", ptr %49, i32 0, i32 0
  %51 = load double, ptr %50, align 8, !tbaa !49
  %52 = getelementptr inbounds nuw %struct.PJ_LP, ptr %4, i32 0, i32 1
  %53 = load double, ptr %52, align 8, !tbaa !57
  %54 = call double @cos(double noundef %53) #7, !tbaa !45
  %55 = fmul double %51, %54
  %56 = fdiv double %48, %55
  %57 = getelementptr inbounds nuw %struct.PJ_LP, ptr %4, i32 0, i32 0
  store double %56, ptr %57, align 8, !tbaa !60
  %58 = load ptr, ptr %7, align 8, !tbaa !41
  %59 = getelementptr inbounds nuw %"struct.(anonymous namespace)::pj_sts", ptr %58, i32 0, i32 3
  %60 = load i32, ptr %59, align 8, !tbaa !53
  %61 = icmp ne i32 %60, 0
  br i1 %61, label %62, label %69

62:                                               ; preds = %35
  %63 = load double, ptr %8, align 8, !tbaa !44
  %64 = load double, ptr %8, align 8, !tbaa !44
  %65 = fmul double %63, %64
  %66 = getelementptr inbounds nuw %struct.PJ_LP, ptr %4, i32 0, i32 0
  %67 = load double, ptr %66, align 8, !tbaa !60
  %68 = fdiv double %67, %65
  store double %68, ptr %66, align 8, !tbaa !60
  br label %74

69:                                               ; preds = %35
  %70 = load double, ptr %8, align 8, !tbaa !44
  %71 = getelementptr inbounds nuw %struct.PJ_LP, ptr %4, i32 0, i32 0
  %72 = load double, ptr %71, align 8, !tbaa !60
  %73 = fmul double %72, %70
  store double %73, ptr %71, align 8, !tbaa !60
  br label %74

74:                                               ; preds = %69, %62
  call void @llvm.lifetime.end.p0(i64 8, ptr %8) #7
  call void @llvm.lifetime.end.p0(i64 8, ptr %7) #7
  %75 = load { double, double }, ptr %4, align 8
  ret { double, double } %75
}