; Function Attrs: mustprogress uwtable
define internal { double, double } @_ZL13sts_s_inverse5PJ_XYP8PJconsts(double %0, double %1, ptr noundef readonly captures(none) %2) #0 {
  %4 = getelementptr inbounds nuw i8, ptr %2, i64 88
  %5 = load ptr, ptr %4, align 8, !tbaa !3
  %6 = getelementptr inbounds nuw i8, ptr %5, i64 8
  %7 = load double, ptr %6, align 8, !tbaa !41
  %8 = fdiv double %1, %7
  %9 = getelementptr inbounds nuw i8, ptr %5, i64 24
  %10 = load i32, ptr %9, align 8, !tbaa !43
  %.not = icmp eq i32 %10, 0
  br i1 %.not, label %13, label %11

11:                                               ; preds = %3
  %12 = tail call double @atan(double noundef %8) #6, !tbaa !49
  br label %16

13:                                               ; preds = %3
  %14 = load ptr, ptr %2, align 8, !tbaa !50
  %15 = tail call noundef double @_Z5aasinP6pj_ctxd(ptr noundef %14, double noundef %8)
  br label %16

16:                                               ; preds = %13, %11
  %17 = phi double [ %12, %11 ], [ %15, %13 ]
  %18 = tail call double @cos(double noundef %17) #6, !tbaa !49
  %19 = getelementptr inbounds nuw i8, ptr %5, i64 16
  %20 = load double, ptr %19, align 8, !tbaa !42
  %21 = fdiv double %17, %20
  %22 = load double, ptr %5, align 8, !tbaa !39
  %23 = tail call double @cos(double noundef %21) #6, !tbaa !49
  %24 = fmul double %22, %23
  %25 = fdiv double %0, %24
  %26 = load i32, ptr %9, align 8, !tbaa !43
  %.not16 = icmp eq i32 %26, 0
  %27 = fmul double %18, %18
  %28 = fdiv double %25, %27
  %29 = fmul double %18, %25
  %.sroa.012.0 = select i1 %.not16, double %29, double %28
  %.fca.0.insert = insertvalue { double, double } poison, double %.sroa.012.0, 0
  %.fca.1.insert = insertvalue { double, double } %.fca.0.insert, double %21, 1
  ret { double, double } %.fca.1.insert
}